target datalayout = "e-m:e-p270:32:32-p271:32:32-p272:64:64-i64:64-i128:128-f80:128-n8:16:32:64-S128"
target triple = "x86_64-pc-linux-gnu"

%struct._object = type { %union.anon, ptr }
%union.anon = type { i64 }
%struct.anon = type { i32, i32 }

@PyExc_ValueError = external global ptr, align 8
@.str.8 = private unnamed_addr constant [34 x i8] c"need more than 0 values to unpack\00", align 1
@.str.9 = private unnamed_addr constant [33 x i8] c"need more than 1 value to unpack\00", align 1
@.str.10 = private unnamed_addr constant [39 x i8] c"too many values to unpack (expected 2)\00", align 1

; Function Attrs: alwaysinline nounwind uwtable
define internal i32 @_Py_IsImmortal(ptr noundef %0) #4 {
  %2 = alloca ptr, align 8
  store ptr %0, ptr %2, align 8, !tbaa !42
  %3 = load ptr, ptr %2, align 8, !tbaa !42
  %4 = getelementptr inbounds nuw %struct._object, ptr %3, i32 0, i32 0
  %5 = getelementptr inbounds nuw %struct.anon, ptr %4, i32 0, i32 0
  %6 = load i32, ptr %5, align 8, !tbaa !74
  %7 = icmp slt i32 %6, 0
  %8 = zext i1 %7 to i32
  ret i32 %8
}

; Function Attrs: inlinehint nounwind uwtable
define internal void @Py_XDECREF(ptr noundef %0) #3 {
  %2 = alloca ptr, align 8
  store ptr %0, ptr %2, align 8, !tbaa !42
  %3 = load ptr, ptr %2, align 8, !tbaa !42
  %4 = icmp ne ptr %3, null
  br i1 %4, label %5, label %7

5:                                                ; preds = %1
  %6 = load ptr, ptr %2, align 8, !tbaa !42
  call void @Py_DECREF(ptr noundef %6)
  br label %7

7:                                                ; preds = %5, %1
  ret void
}

; Function Attrs: alwaysinline nounwind uwtable
define internal void @Py_DECREF(ptr noundef %0) #4 {
  %2 = alloca ptr, align 8
  store ptr %0, ptr %2, align 8, !tbaa !42
  %3 = load ptr, ptr %2, align 8, !tbaa !42
  %4 = call i32 @_Py_IsImmortal(ptr noundef %3)
  %5 = icmp ne i32 %4, 0
  br i1 %5, label %6, label %7

6:                                                ; preds = %1
  br label %16

7:                                                ; preds = %1
  %8 = load ptr, ptr %2, align 8, !tbaa !42
  %9 = getelementptr inbounds nuw %struct._object, ptr %8, i32 0, i32 0
  %10 = getelementptr inbounds nuw %struct.anon, ptr %9, i32 0, i32 0
  %11 = load i32, ptr %10, align 8, !tbaa !74
  %12 = add i32 %11, -1
  store i32 %12, ptr %10, align 8, !tbaa !74
  %13 = icmp eq i32 %12, 0
  br i1 %13, label %14, label %16

14:                                               ; preds = %7
  %15 = load ptr, ptr %2, align 8, !tbaa !42
  call void @_Py_Dealloc(ptr noundef %15)
  br label %16

16:                                               ; preds = %6, %14, %7
  ret void
}

; Function Attrs: nounwind uwtable
define internal i32 @mutablemapping_add_pairs(ptr noundef %0, ptr noundef %1) #0 {
  %3 = alloca i32, align 4
  %4 = alloca ptr, align 8
  %5 = alloca ptr, align 8
  %6 = alloca ptr, align 8
  %7 = alloca ptr, align 8
  %8 = alloca ptr, align 8
  %9 = alloca i32, align 4
  %10 = alloca i32, align 4
  %11 = alloca ptr, align 8
  %12 = alloca ptr, align 8
  %13 = alloca ptr, align 8
  store ptr %0, ptr %4, align 8, !tbaa !42
  store ptr %1, ptr %5, align 8, !tbaa !42
  call void @llvm.lifetime.start.p0(i64 8, ptr %6) #7
  call void @llvm.lifetime.start.p0(i64 8, ptr %7) #7
  call void @llvm.lifetime.start.p0(i64 8, ptr %8) #7
  call void @llvm.lifetime.start.p0(i64 4, ptr %9) #7
  store i32 0, ptr %9, align 4, !tbaa !43
  %14 = load ptr, ptr %5, align 8, !tbaa !42
  %15 = call ptr @PyObject_GetIter(ptr noundef %14)
  store ptr %15, ptr %7, align 8, !tbaa !42
  %16 = load ptr, ptr %7, align 8, !tbaa !42
  %17 = icmp eq ptr %16, null
  br i1 %17, label %18, label %19

18:                                               ; preds = %2
  store i32 -1, ptr %3, align 4
  store i32 1, ptr %10, align 4
  br label %91

19:                                               ; preds = %2
  call void @PyErr_Clear()
  br label %20

20:                                               ; preds = %81, %19
  %21 = load ptr, ptr %7, align 8, !tbaa !42
  %22 = call ptr @PyIter_Next(ptr noundef %21)
  store ptr %22, ptr %6, align 8, !tbaa !42
  %23 = icmp ne ptr %22, null
  br i1 %23, label %24, label %82

24:                                               ; preds = %20
  call void @llvm.lifetime.start.p0(i64 8, ptr %11) #7
  store ptr null, ptr %11, align 8, !tbaa !42
  call void @llvm.lifetime.start.p0(i64 8, ptr %12) #7
  store ptr null, ptr %12, align 8, !tbaa !42
  call void @llvm.lifetime.start.p0(i64 8, ptr %13) #7
  %25 = load ptr, ptr %6, align 8, !tbaa !42
  %26 = call ptr @PyObject_GetIter(ptr noundef %25)
  store ptr %26, ptr %13, align 8, !tbaa !42
  %27 = load ptr, ptr %13, align 8, !tbaa !42
  %28 = icmp eq ptr %27, null
  br i1 %28, label %29, label %30

29:                                               ; preds = %24
  br label %70

30:                                               ; preds = %24
  %31 = load ptr, ptr %13, align 8, !tbaa !42
  %32 = call ptr @PyIter_Next(ptr noundef %31)
  store ptr %32, ptr %11, align 8, !tbaa !42
  %33 = load ptr, ptr %11, align 8, !tbaa !42
  %34 = icmp eq ptr %33, null
  br i1 %34, label %35, label %41

35:                                               ; preds = %30
  %36 = call ptr @PyErr_Occurred()
  %37 = icmp ne ptr %36, null
  br i1 %37, label %40, label %38

38:                                               ; preds = %35
  %39 = load ptr, ptr @PyExc_ValueError, align 8, !tbaa !42
  call void @PyErr_SetString(ptr noundef %39, ptr noundef @.str.8)
  br label %40

40:                                               ; preds = %38, %35
  br label %70

41:                                               ; preds = %30
  %42 = load ptr, ptr %13, align 8, !tbaa !42
  %43 = call ptr @PyIter_Next(ptr noundef %42)
  store ptr %43, ptr %12, align 8, !tbaa !42
  %44 = load ptr, ptr %12, align 8, !tbaa !42
  %45 = icmp eq ptr %44, null
  br i1 %45, label %46, label %52

46:                                               ; preds = %41
  %47 = call ptr @PyErr_Occurred()
  %48 = icmp ne ptr %47, null
  br i1 %48, label %51, label %49

49:                                               ; preds = %46
  %50 = load ptr, ptr @PyExc_ValueError, align 8, !tbaa !42
  call void @PyErr_SetString(ptr noundef %50, ptr noundef @.str.9)
  br label %51

51:                                               ; preds = %49, %46
  br label %70

52:                                               ; preds = %41
  %53 = load ptr, ptr %13, align 8, !tbaa !42
  %54 = call ptr @PyIter_Next(ptr noundef %53)
  store ptr %54, ptr %8, align 8, !tbaa !42
  %55 = load ptr, ptr %8, align 8, !tbaa !42
  %56 = icmp ne ptr %55, null
  br i1 %56, label %57, label %60

57:                                               ; preds = %52
  %58 = load ptr, ptr %8, align 8, !tbaa !42
  call void @Py_DECREF(ptr noundef %58)
  %59 = load ptr, ptr @PyExc_ValueError, align 8, !tbaa !42
  call void @PyErr_SetString(ptr noundef %59, ptr noundef @.str.10)
  br label %70

60:                                               ; preds = %52
  %61 = call ptr @PyErr_Occurred()
  %62 = icmp ne ptr %61, null
  br i1 %62, label %63, label %64

63:                                               ; preds = %60
  br label %70

64:                                               ; preds = %60
  br label %65

65:                                               ; preds = %64
  %66 = load ptr, ptr %4, align 8, !tbaa !42
  %67 = load ptr, ptr %11, align 8, !tbaa !42
  %68 = load ptr, ptr %12, align 8, !tbaa !42
  %69 = call i32 @PyObject_SetItem(ptr noundef %66, ptr noundef %67, ptr noundef %68)
  store i32 %69, ptr %9, align 4, !tbaa !43
  br label %70

70:                                               ; preds = %65, %63, %57, %51, %40, %29
  %71 = load ptr, ptr %6, align 8, !tbaa !42
  call void @Py_DECREF(ptr noundef %71)
  %72 = load ptr, ptr %13, align 8, !tbaa !42
  call void @Py_XDECREF(ptr noundef %72)
  %73 = load ptr, ptr %11, align 8, !tbaa !42
  call void @Py_XDECREF(ptr noundef %73)
  %74 = load ptr, ptr %12, align 8, !tbaa !42
  call void @Py_XDECREF(ptr noundef %74)
  %75 = call ptr @PyErr_Occurred()
  %76 = icmp ne ptr %75, null
  br i1 %76, label %77, label %78

77:                                               ; preds = %70
  store i32 3, ptr %10, align 4
  br label %79

78:                                               ; preds = %70
  store i32 0, ptr %10, align 4
  br label %79

79:                                               ; preds = %78, %77
  call void @llvm.lifetime.end.p0(i64 8, ptr %13) #7
  call void @llvm.lifetime.end.p0(i64 8, ptr %12) #7
  call void @llvm.lifetime.end.p0(i64 8, ptr %11) #7
  %80 = load i32, ptr %10, align 4
  switch i32 %80, label %93 [
    i32 0, label %81
    i32 3, label %82
  ]

81:                                               ; preds = %79
  br label %20, !llvm.loop !79

82:                                               ; preds = %79, %20
  %83 = load ptr, ptr %7, align 8, !tbaa !42
  call void @Py_DECREF(ptr noundef %83)
  %84 = load i32, ptr %9, align 4, !tbaa !43
  %85 = icmp slt i32 %84, 0
  br i1 %85, label %89, label %86

86:                                               ; preds = %82
  %87 = call ptr @PyErr_Occurred()
  %88 = icmp ne ptr %87, null
  br i1 %88, label %89, label %90

89:                                               ; preds = %86, %82
  store i32 -1, ptr %3, align 4
  store i32 1, ptr %10, align 4
  br label %91

90:                                               ; preds = %86
  store i32 0, ptr %3, align 4
  store i32 1, ptr %10, align 4
  br label %91

91:                                               ; preds = %90, %89, %18
  call void @llvm.lifetime.end.p0(i64 4, ptr %9) #7
  call void @llvm.lifetime.end.p0(i64 8, ptr %8) #7
  call void @llvm.lifetime.end.p0(i64 8, ptr %7) #7
  call void @llvm.lifetime.end.p0(i64 8, ptr %6) #7
  %92 = load i32, ptr %3, align 4
  ret i32 %92

93:                                               ; preds = %79
  unreachable
}