; Function Attrs: nounwind uwtable
define internal fastcc range(i32 -1, 1) i32 @mutablemapping_add_pairs(ptr noundef %0, ptr noundef %1) unnamed_addr #0 {
  %3 = tail call ptr @PyObject_GetIter(ptr noundef %1) #8
  %4 = icmp eq ptr %3, null
  br i1 %4, label %72, label %5

5:                                                ; preds = %2
  tail call void @PyErr_Clear() #8
  br label %6

6:                                                ; preds = %Py_XDECREF.exit52, %5
  %.025 = phi i32 [ 0, %5 ], [ %.2, %Py_XDECREF.exit52 ]
  %7 = tail call ptr @PyIter_Next(ptr noundef nonnull %3) #8
  %.not = icmp eq ptr %7, null
  br i1 %.not, label %63, label %8

8:                                                ; preds = %6
  %9 = tail call ptr @PyObject_GetIter(ptr noundef nonnull %7) #8
  %10 = icmp eq ptr %9, null
  br i1 %10, label %38, label %11

11:                                               ; preds = %8
  %12 = tail call ptr @PyIter_Next(ptr noundef nonnull %9) #8
  %13 = icmp eq ptr %12, null
  br i1 %13, label %14, label %18

14:                                               ; preds = %11
  %15 = tail call ptr @PyErr_Occurred() #8
  %.not37 = icmp eq ptr %15, null
  br i1 %.not37, label %16, label %38

16:                                               ; preds = %14
  %17 = load ptr, ptr @PyExc_ValueError, align 8, !tbaa !53
  tail call void @PyErr_SetString(ptr noundef %17, ptr noundef nonnull @.str.8) #8
  br label %38

18:                                               ; preds = %11
  %19 = tail call ptr @PyIter_Next(ptr noundef nonnull %9) #8
  %20 = icmp eq ptr %19, null
  br i1 %20, label %21, label %25

21:                                               ; preds = %18
  %22 = tail call ptr @PyErr_Occurred() #8
  %.not36 = icmp eq ptr %22, null
  br i1 %.not36, label %23, label %38

23:                                               ; preds = %21
  %24 = load ptr, ptr @PyExc_ValueError, align 8, !tbaa !53
  tail call void @PyErr_SetString(ptr noundef %24, ptr noundef nonnull @.str.9) #8
  br label %38

25:                                               ; preds = %18
  %26 = tail call ptr @PyIter_Next(ptr noundef nonnull %9) #8
  %.not34 = icmp eq ptr %26, null
  br i1 %.not34, label %34, label %27

27:                                               ; preds = %25
  %28 = load i32, ptr %26, align 8, !tbaa !38
  %.not.i42 = icmp sgt i32 %28, -1
  br i1 %.not.i42, label %29, label %Py_DECREF.exit43

29:                                               ; preds = %27
  %30 = add nsw i32 %28, -1
  store i32 %30, ptr %26, align 8, !tbaa !38
  %31 = icmp eq i32 %30, 0
  br i1 %31, label %32, label %Py_DECREF.exit43

32:                                               ; preds = %29
  tail call void @_Py_Dealloc(ptr noundef nonnull %26) #8
  br label %Py_DECREF.exit43

Py_DECREF.exit43:                                 ; preds = %27, %29, %32
  %33 = load ptr, ptr @PyExc_ValueError, align 8, !tbaa !53
  tail call void @PyErr_SetString(ptr noundef %33, ptr noundef nonnull @.str.10) #8
  br label %38

34:                                               ; preds = %25
  %35 = tail call ptr @PyErr_Occurred() #8
  %.not35 = icmp eq ptr %35, null
  br i1 %.not35, label %36, label %38

36:                                               ; preds = %34
  %37 = tail call i32 @PyObject_SetItem(ptr noundef %0, ptr noundef nonnull %12, ptr noundef nonnull %19) #8
  br label %38

38:                                               ; preds = %34, %21, %23, %14, %16, %8, %36, %Py_DECREF.exit43
  %.2 = phi i32 [ %.025, %8 ], [ %.025, %14 ], [ %.025, %16 ], [ %.025, %21 ], [ %.025, %23 ], [ %.025, %Py_DECREF.exit43 ], [ %.025, %34 ], [ %37, %36 ]
  %.023 = phi ptr [ null, %8 ], [ null, %14 ], [ null, %16 ], [ %12, %21 ], [ %12, %23 ], [ %12, %Py_DECREF.exit43 ], [ %12, %34 ], [ %12, %36 ]
  %.022 = phi ptr [ null, %8 ], [ null, %14 ], [ null, %16 ], [ null, %21 ], [ null, %23 ], [ %19, %Py_DECREF.exit43 ], [ %19, %34 ], [ %19, %36 ]
  %39 = load i32, ptr %7, align 8, !tbaa !38
  %.not.i40 = icmp sgt i32 %39, -1
  br i1 %.not.i40, label %40, label %Py_DECREF.exit41

40:                                               ; preds = %38
  %41 = add nsw i32 %39, -1
  store i32 %41, ptr %7, align 8, !tbaa !38
  %42 = icmp eq i32 %41, 0
  br i1 %42, label %43, label %Py_DECREF.exit41

43:                                               ; preds = %40
  tail call void @_Py_Dealloc(ptr noundef nonnull %7) #8
  br label %Py_DECREF.exit41

Py_DECREF.exit41:                                 ; preds = %38, %40, %43
  br i1 %10, label %Py_XDECREF.exit, label %44

44:                                               ; preds = %Py_DECREF.exit41
  %45 = load i32, ptr %9, align 8, !tbaa !38
  %.not.i.i = icmp sgt i32 %45, -1
  br i1 %.not.i.i, label %46, label %Py_XDECREF.exit

46:                                               ; preds = %44
  %47 = add nsw i32 %45, -1
  store i32 %47, ptr %9, align 8, !tbaa !38
  %48 = icmp eq i32 %47, 0
  br i1 %48, label %49, label %Py_XDECREF.exit

49:                                               ; preds = %46
  tail call void @_Py_Dealloc(ptr noundef nonnull %9) #8
  br label %Py_XDECREF.exit

Py_XDECREF.exit:                                  ; preds = %Py_DECREF.exit41, %44, %46, %49
  %.not.i47 = icmp eq ptr %.023, null
  br i1 %.not.i47, label %Py_XDECREF.exit49, label %50

50:                                               ; preds = %Py_XDECREF.exit
  %51 = load i32, ptr %.023, align 8, !tbaa !38
  %.not.i.i48 = icmp sgt i32 %51, -1
  br i1 %.not.i.i48, label %52, label %Py_XDECREF.exit49

52:                                               ; preds = %50
  %53 = add nsw i32 %51, -1
  store i32 %53, ptr %.023, align 8, !tbaa !38
  %54 = icmp eq i32 %53, 0
  br i1 %54, label %55, label %Py_XDECREF.exit49

55:                                               ; preds = %52
  tail call void @_Py_Dealloc(ptr noundef nonnull %.023) #8
  br label %Py_XDECREF.exit49

Py_XDECREF.exit49:                                ; preds = %Py_XDECREF.exit, %50, %52, %55
  %.not.i50 = icmp eq ptr %.022, null
  br i1 %.not.i50, label %Py_XDECREF.exit52, label %56

56:                                               ; preds = %Py_XDECREF.exit49
  %57 = load i32, ptr %.022, align 8, !tbaa !38
  %.not.i.i51 = icmp sgt i32 %57, -1
  br i1 %.not.i.i51, label %58, label %Py_XDECREF.exit52

58:                                               ; preds = %56
  %59 = add nsw i32 %57, -1
  store i32 %59, ptr %.022, align 8, !tbaa !38
  %60 = icmp eq i32 %59, 0
  br i1 %60, label %61, label %Py_XDECREF.exit52

61:                                               ; preds = %58
  tail call void @_Py_Dealloc(ptr noundef nonnull %.022) #8
  br label %Py_XDECREF.exit52

Py_XDECREF.exit52:                                ; preds = %Py_XDECREF.exit49, %56, %58, %61
  %62 = tail call ptr @PyErr_Occurred() #8
  %.not38 = icmp eq ptr %62, null
  br i1 %.not38, label %6, label %63

63:                                               ; preds = %Py_XDECREF.exit52, %6
  %.1 = phi i32 [ %.2, %Py_XDECREF.exit52 ], [ %.025, %6 ]
  %64 = load i32, ptr %3, align 8, !tbaa !38
  %.not.i = icmp sgt i32 %64, -1
  br i1 %.not.i, label %65, label %Py_DECREF.exit

65:                                               ; preds = %63
  %66 = add nsw i32 %64, -1
  store i32 %66, ptr %3, align 8, !tbaa !38
  %67 = icmp eq i32 %66, 0
  br i1 %67, label %68, label %Py_DECREF.exit

68:                                               ; preds = %65
  tail call void @_Py_Dealloc(ptr noundef nonnull %3) #8
  br label %Py_DECREF.exit

Py_DECREF.exit:                                   ; preds = %63, %65, %68
  %69 = icmp slt i32 %.1, 0
  br i1 %69, label %72, label %70

70:                                               ; preds = %Py_DECREF.exit
  %71 = tail call ptr @PyErr_Occurred() #8
  %.not39 = icmp ne ptr %71, null
  %spec.select = sext i1 %.not39 to i32
  br label %72

72:                                               ; preds = %70, %Py_DECREF.exit, %2
  %.0 = phi i32 [ -1, %2 ], [ -1, %Py_DECREF.exit ], [ %spec.select, %70 ]
  ret i32 %.0
}